; Function Attrs: mustprogress uwtable
define void @_ZN32pxrInternal_v0_24__pxrReserved__23UsdGeomConstraintTarget21GetConstraintAttrNameERKNSt7__cxx1112basic_stringIcSt11char_traitsIcESaIcEEE(ptr dead_on_unwind noalias writable sret(%"class.pxrInternal_v0_24__pxrReserved__::TfToken") align 8 %0, ptr noundef nonnull align 8 dereferenceable(32) %1) local_unnamed_addr #1 align 2 personality ptr @__gxx_personality_v0 {
  %3 = alloca %"class.std::__cxx11::basic_string", align 8
  %4 = alloca %"class.std::__cxx11::basic_string", align 8
  %5 = tail call fastcc noundef ptr @_ZNK32pxrInternal_v0_24__pxrReserved__12TfStaticDataINS_12_GLOBAL__N_130_tokens_PrivateStaticTokenTypeENS_27Tf_StaticDataDefaultFactoryIS2_EEEptEv()
  %6 = load ptr, ptr %5, align 8
  %7 = ptrtoint ptr %6 to i64
  %8 = and i64 %7, -8
  %.not.i = icmp eq i64 %8, 0
  br i1 %.not.i, label %12, label %9

9:                                                ; preds = %2
  %10 = inttoptr i64 %8 to ptr
  %11 = getelementptr inbounds nuw i8, ptr %10, i64 16
  br label %_ZNK32pxrInternal_v0_24__pxrReserved__7TfToken9GetStringB5cxx11Ev.exit

12:                                               ; preds = %2
  %13 = tail call noundef nonnull align 8 dereferenceable(32) ptr @_ZN32pxrInternal_v0_24__pxrReserved__7TfToken15_GetEmptyStringB5cxx11Ev()
  br label %_ZNK32pxrInternal_v0_24__pxrReserved__7TfToken9GetStringB5cxx11Ev.exit

_ZNK32pxrInternal_v0_24__pxrReserved__7TfToken9GetStringB5cxx11Ev.exit: ; preds = %9, %12
  %14 = phi ptr [ %11, %9 ], [ %13, %12 ]
  call void @_ZNSt7__cxx1112basic_stringIcSt11char_traitsIcESaIcEEC1ERKS4_(ptr noundef nonnull align 8 dereferenceable(32) %4, ptr noundef nonnull align 8 dereferenceable(32) %14)
  %15 = invoke noundef nonnull align 8 dereferenceable(32) ptr @_ZNSt7__cxx1112basic_stringIcSt11char_traitsIcESaIcEE6appendEPKc(ptr noundef nonnull align 8 dereferenceable(32) %4, ptr noundef nonnull @.str)
          to label %_ZStplIcSt11char_traitsIcESaIcEENSt7__cxx1112basic_stringIT_T0_T1_EERKS8_PKS5_.exit unwind label %16

common.resume:                                    ; preds = %21, %23, %16
  %common.resume.op = phi { ptr, i32 } [ %17, %16 ], [ %24, %23 ], [ %22, %21 ]
  call void @_ZNSt7__cxx1112basic_stringIcSt11char_traitsIcESaIcEED1Ev(ptr noundef nonnull align 8 dereferenceable(32) %4) #16
  resume { ptr, i32 } %common.resume.op

16:                                               ; preds = %_ZNK32pxrInternal_v0_24__pxrReserved__7TfToken9GetStringB5cxx11Ev.exit
  %17 = landingpad { ptr, i32 }
          cleanup
  br label %common.resume

_ZStplIcSt11char_traitsIcESaIcEENSt7__cxx1112basic_stringIT_T0_T1_EERKS8_PKS5_.exit: ; preds = %_ZNK32pxrInternal_v0_24__pxrReserved__7TfToken9GetStringB5cxx11Ev.exit
  %18 = invoke noundef nonnull align 8 dereferenceable(32) ptr @_ZNSt7__cxx1112basic_stringIcSt11char_traitsIcESaIcEE6appendERKS4_(ptr noundef nonnull align 8 dereferenceable(32) %4, ptr noundef nonnull align 8 dereferenceable(32) %1)
          to label %19 unwind label %21

19:                                               ; preds = %_ZStplIcSt11char_traitsIcESaIcEENSt7__cxx1112basic_stringIT_T0_T1_EERKS8_PKS5_.exit
  call void @_ZNSt7__cxx1112basic_stringIcSt11char_traitsIcESaIcEEC1EOS4_(ptr noundef nonnull align 8 dereferenceable(32) %3, ptr noundef nonnull align 8 dereferenceable(32) %18) #16
  invoke void @_ZN32pxrInternal_v0_24__pxrReserved__7TfTokenC1ERKNSt7__cxx1112basic_stringIcSt11char_traitsIcESaIcEEE(ptr noundef nonnull align 8 dereferenceable(8) %0, ptr noundef nonnull align 8 dereferenceable(32) %3)
          to label %20 unwind label %23

20:                                               ; preds = %19
  call void @_ZNSt7__cxx1112basic_stringIcSt11char_traitsIcESaIcEED1Ev(ptr noundef nonnull align 8 dereferenceable(32) %3) #16
  call void @_ZNSt7__cxx1112basic_stringIcSt11char_traitsIcESaIcEED1Ev(ptr noundef nonnull align 8 dereferenceable(32) %4) #16
  ret void

21:                                               ; preds = %_ZStplIcSt11char_traitsIcESaIcEENSt7__cxx1112basic_stringIT_T0_T1_EERKS8_PKS5_.exit
  %22 = landingpad { ptr, i32 }
          cleanup
  br label %common.resume

23:                                               ; preds = %19
  %24 = landingpad { ptr, i32 }
          cleanup
  call void @_ZNSt7__cxx1112basic_stringIcSt11char_traitsIcESaIcEED1Ev(ptr noundef nonnull align 8 dereferenceable(32) %3) #16
  br label %common.resume
}